target datalayout = "e-m:e-p270:32:32-p271:32:32-p272:64:64-i64:64-i128:128-f80:128-n8:16:32:64-S128"
target triple = "x86_64-pc-linux-gnu"

%class.QString = type { %struct.QArrayDataPointer }
%struct.QArrayDataPointer = type { ptr, ptr, i64 }
%class.FilterDialog = type { %class.GeometryStateDialog, ptr, ptr, i32, ptr }
%class.GeometryStateDialog = type { %class.QDialog, %class.QString, ptr }
%class.QDialog = type { %class.QWidget }
%class.QWidget = type { %class.QObject, %class.QPaintDevice.base, ptr }
%class.QObject = type { ptr, %class.QScopedPointer }
%class.QScopedPointer = type { ptr }
%class.QPaintDevice.base = type <{ ptr, i16 }>

@mainApp = external global ptr, align 8
@.str.12 = private unnamed_addr constant [1 x i8] zeroinitializer, align 1
@.str.13 = private unnamed_addr constant [24 x i8] c"ui/qt/filter_dialog.cpp\00", align 1
@.str.14 = private unnamed_addr constant [31 x i8] c"assertion \22not reached\22 failed\00", align 1
@__func__._ZN12FilterDialog21on_buttonBox_acceptedEv = private unnamed_addr constant [22 x i8] c"on_buttonBox_accepted\00", align 1

; Function Attrs: mustprogress null_pointer_is_valid sspstrong uwtable
define void @_ZN12FilterDialog21on_buttonBox_acceptedEv(ptr noundef align 8 dereferenceable_or_null(104) %0) #0 align 2 {
  %2 = alloca ptr, align 8
  store ptr %0, ptr %2, align 8
  %3 = load ptr, ptr %2, align 8
  %4 = getelementptr inbounds nuw %class.FilterDialog, ptr %3, i32 0, i32 2
  %5 = load ptr, ptr %4, align 8
  call void @_ZN15FilterListModel8saveListEv(ptr noundef align 8 dereferenceable_or_null(48) %5)
  %6 = getelementptr inbounds nuw %class.FilterDialog, ptr %3, i32 0, i32 3
  %7 = load i32, ptr %6, align 8
  switch i32 %7, label %14 [
    i32 0, label %8
    i32 1, label %10
    i32 2, label %12
  ]

8:                                                ; preds = %1
  %9 = load ptr, ptr @mainApp, align 8
  call void @_ZN15MainApplication13emitAppSignalENS_9AppSignalE(ptr noundef align 8 dereferenceable_or_null(216) %9, i32 noundef 0)
  br label %15

10:                                               ; preds = %1
  %11 = load ptr, ptr @mainApp, align 8
  call void @_ZN15MainApplication13emitAppSignalENS_9AppSignalE(ptr noundef align 8 dereferenceable_or_null(216) %11, i32 noundef 3)
  br label %15

12:                                               ; preds = %1
  %13 = load ptr, ptr @mainApp, align 8
  call void @_ZN15MainApplication25reloadDisplayFilterMacrosEv(ptr noundef align 8 dereferenceable_or_null(216) %13)
  br label %15

14:                                               ; preds = %1
  call void (ptr, i32, ptr, i64, ptr, ptr, ...) @ws_log_fatal_full(ptr noundef @.str.12, i32 noundef 7, ptr noundef @.str.13, i64 noundef 216, ptr noundef @__func__._ZN12FilterDialog21on_buttonBox_acceptedEv, ptr noundef @.str.14) #29
  unreachable

15:                                               ; preds = %12, %10, %8
  ret void
}