; Function Attrs: mustprogress null_pointer_is_valid sspstrong uwtable
define void @_ZN12FilterDialog21on_buttonBox_acceptedEv(ptr noundef readonly align 8 captures(none) dereferenceable_or_null(104) %0) local_unnamed_addr #0 align 2 {
  %2 = getelementptr inbounds nuw i8, ptr %0, i64 80
  %3 = load ptr, ptr %2, align 8
  tail call void @_ZN15FilterListModel8saveListEv(ptr noundef align 8 dereferenceable_or_null(48) %3)
  %4 = getelementptr inbounds nuw i8, ptr %0, i64 88
  %5 = load i32, ptr %4, align 8
  switch i32 %5, label %12 [
    i32 0, label %6
    i32 1, label %8
    i32 2, label %10
  ]

6:                                                ; preds = %1
  %7 = load ptr, ptr @mainApp, align 8
  tail call void @_ZN15MainApplication13emitAppSignalENS_9AppSignalE(ptr noundef align 8 dereferenceable_or_null(216) %7, i32 noundef 0)
  br label %13

8:                                                ; preds = %1
  %9 = load ptr, ptr @mainApp, align 8
  tail call void @_ZN15MainApplication13emitAppSignalENS_9AppSignalE(ptr noundef align 8 dereferenceable_or_null(216) %9, i32 noundef 3)
  br label %13

10:                                               ; preds = %1
  %11 = load ptr, ptr @mainApp, align 8
  tail call void @_ZN15MainApplication25reloadDisplayFilterMacrosEv(ptr noundef align 8 dereferenceable_or_null(216) %11)
  br label %13

12:                                               ; preds = %1
  tail call void (ptr, i32, ptr, i64, ptr, ptr, ...) @ws_log_fatal_full(ptr noundef nonnull @.str.12, i32 noundef 7, ptr noundef nonnull @.str.13, i64 noundef 216, ptr noundef nonnull @__func__._ZN12FilterDialog21on_buttonBox_acceptedEv, ptr noundef nonnull @.str.14) #23
  unreachable

13:                                               ; preds = %10, %8, %6
  ret void
}